#include <math.h>
#include <stdio.h>
#include <stdlib.h>
#include <string.h>

void main()
{
	int n=0,i,len1,len2,j=0;
	char s[50],w[50],t[50]={'\0'};
    scanf("%s",s);
	scanf("%s",w);
    len1=strlen(w);
	len2=strlen(s);
	for(i=0;i<len1-len2;i++)
	{
       for(j=0;j<len2;j++)
		   t[j]=w[i+j];
	   if(strcmp(t,s)==0)
		   break;
	   else 
	   { n=n+1;
	     strcpy(t,"\0\0\0\0\0\0\0\0\0\0");
	   }
	}
	printf("%d",n);
}


